Microchip MPLAB XC8 Compiler V2.41

Linker command line:

-W-3 \
  --edf=C:\Program Files\Microchip\xc8\v2.41\pic\dat\20230208172133_en.msgs \
  -cn \
  -h+dist/default/production\PIC16F877A_Bipolar_Stepper.X.production.sym \
  --cmf=dist/default/production\PIC16F877A_Bipolar_Stepper.X.production.cmf \
  -z -Q16F877A -oC:\Users\84935\AppData\Local\Temp\xcAsjk8.\driver_tmp_3.o \
  --defsym=__MPLAB_BUILD=1 --fixupoverflow=error \
  -Mdist/default/production/PIC16F877A_Bipolar_Stepper.X.production.map \
  --md=C:\Users\84935\AppData\Local\Temp\xcAsjk8.\driver_tmp_0.dat -E1 \
  -ver=XC8 Compiler --acfsm=1493 -ACODE=00h-07FFhx4 -ASTRCODE=00h-01FFFh \
  -ASTRING=00h-0FFhx32 -ACONST=00h-0FFhx32 -AENTRY=00h-0FFhx32 \
  -ACOMMON=070h-07Fh -ABANK0=020h-06Fh -ABANK1=0A0h-0EFh \
  -ABANK2=0110h-016Fh -ABANK3=0190h-01EFh \
  -ARAM=020h-06Fh,0A0h-0EFh,0110h-016Fh,0190h-01EFh \
  -AABS1=020h-07Fh,0A0h-0EFh,0110h-016Fh,0190h-01EFh -ASFR0=00h-01Fh \
  -ASFR1=080h-09Fh -ASFR2=0100h-010Fh -ASFR3=0180h-018Fh \
  -ACONFIG=02007h-02007h -DCONFIG=2 -AIDLOC=02000h-02003h -DIDLOC=2 \
  -AEEDATA=00h-0FFh/02100h -peeprom_data=EEDATA -DEEDATA=2 -DCODE=2 \
  -DSTRCODE=2 -DSTRING=2 -DCONST=2 -DENTRY=2 \
  -preset_vec=00h,intentry=04h,init,end_init -ppowerup=CODE -pcinit=CODE \
  -pfunctab=ENTRY -k \
  C:\Users\84935\AppData\Local\Temp\xcAsjk8.\driver_tmp_17.o \
  dist/default/production\PIC16F877A_Bipolar_Stepper.X.production.o 

Object code version is 3.11

Machine type is 16F877A



                Name                               Link     Load   Length Selector   Space Scale
C:\Users\84935\AppData\Local\Temp\xcAsjk8.\driver_tmp_17.o
                end_init                             12       12        3        8       0
                reset_vec                             0        0        3        0       0
                config                             2007     2007        1        0       4
                idloc                              2000     2000        4        0       5
dist/default/production\PIC16F877A_Bipolar_Stepper.X.production.o
                cinit                                15       15        E        8       0
                intentry                              4        4        E        8       0
                config                             2007     2007        1        0       4
                idloc                              2000     2000        4        0       5
                text15                              2FC      2FC      197        8       0
                text14                              764      764       23      C9E       0
                text13                               23       23      2D9        8       0
                text12                              53B      53B       67        8       0
                text11                              7D4      7D4        6      C9E       0
                text10                              787      787       21      C9E       0
                text9                               493      493       A8        8       0
                text8                               710      710       2B      C9E       0
                text7                               64F      64F       48      C9E       0
                text6                               697      697       46      C9E       0
                text5                               7CE      7CE        6      C9E       0
                text4                               5A2      5A2       5E        8       0
                text3                               7A8      7A8       14      C9E       0
                text2                               7BC      7BC        A      C9E       0
                text1                               73B      73B       29      C9E       0
                maintext                            6DD      6DD       33      C9E       0
                cstackBANK0                          20       20       4A       20       1
                cstackCOMMON                         70       70        E       70       1
                cstackBANK1                          B3       B3        5       A0       1
                clrtext                             7C6      7C6        8      C9E       0
                bssBANK1                             A0       A0       13       A0       1
                bssBANK0                             6A       6A        1       20       1
                strings                             600      600       4F      C00       0

TOTAL           Name                               Link     Load   Length     Space
        CLASS   CODE           
                end_init                             12       12        3         0
                cinit                                15       15        E         0
                intentry                              4        4        E         0
                reset_vec                             0        0        3         0
                text15                              2FC      2FC      197         0
                text14                              764      764       23         0
                text13                               23       23      2D9         0
                text12                              53B      53B       67         0
                text11                              7D4      7D4        6         0
                text10                              787      787       21         0
                text9                               493      493       A8         0
                text8                               710      710       2B         0
                text7                               64F      64F       48         0
                text6                               697      697       46         0
                text5                               7CE      7CE        6         0
                text4                               5A2      5A2       5E         0
                text3                               7A8      7A8       14         0
                text2                               7BC      7BC        A         0
                text1                               73B      73B       29         0
                maintext                            6DD      6DD       33         0
                clrtext                             7C6      7C6        8         0

        CLASS   STRCODE        

        CLASS   STRING         
                strings                             600      600       4F         0

        CLASS   CONST          

        CLASS   ENTRY          

        CLASS   COMMON         
                cstackCOMMON                         70       70        E         1

        CLASS   BANK0          
                cstackBANK0                          20       20       4A         1
                bssBANK0                             6A       6A        1         1

        CLASS   BANK1          
                cstackBANK1                          B3       B3        5         1
                bssBANK1                             A0       A0       13         1

        CLASS   BANK2          

        CLASS   BANK3          

        CLASS   RAM            

        CLASS   ABS1           
                abs_s1                               7E       7E        2         1

        CLASS   SFR0           

        CLASS   SFR1           

        CLASS   SFR2           

        CLASS   SFR3           

        CLASS   CONFIG         
                config                             2007     2007        1         4

        CLASS   IDLOC          
                idloc                              2000     2000        4         5

        CLASS   EEDATA         

        CLASS   STACK          



SEGMENTS        Name                           Load    Length   Top    Selector   Space  Class     Delta

                reset_vec                      000000  000003  000003         0       0  CODE        2
                intentry                       000004  0005FC  000600         8       0  CODE        2
                cstackBANK0                    000020  00004B  00006B        20       1  BANK0       1
                cstackCOMMON                   000070  00000E  00007E        70       1  COMMON      1
                bssBANK1                       0000A0  000018  0000B8        A0       1  BANK1       1
                strings                        000600  00004F  00064F       C00       0  STRING      2
                text7                          00064F  00018B  0007DA       C9E       0  CODE        2


UNUSED ADDRESS RANGES

        Name                Unused          Largest block    Delta
        BANK0            006B-006F              5           1
        BANK1            00B8-00EF             38           1
        BANK2            0110-016F             60           1
        BANK3            0190-01EF             60           1
        CODE             0003-0003              1           2
                         07DA-1FFF            800
        CONST            0003-0003              1           2
                         07DA-1FFF            100
        EEDATA           2100-21FF            100           2
        ENTRY            0003-0003              1           2
                         07DA-1FFF            100
        RAM              006B-006F              5           1
                         00B8-00EF             38
                         0110-016F             60
                         0190-01EF             60
        SFR0             0000-001F             20           1
        SFR1             0080-009F             20           1
        SFR2             0100-010F             10           1
        SFR3             0180-018F             10           1
        STRCODE          0003-0003              1           2
                         07DA-1FFF           1826
        STRING           0003-0003              1           2
                         07DA-1FFF            100

                                  Symbol Table

?__Umul8_16                cstackCOMMON 0070
?___fldiv                  cstackBANK0  0035
?___flmul                  cstackBANK0  0020
?___fltol                  cstackBANK0  004F
?_sprintf                  cstackCOMMON 0070
Position_Control@com       cstackBANK0  0063
Position_Control@degree    cstackBANK0  005F
Position_Control@i         cstackBANK0  005D
Position_Control@step      cstackBANK0  005B
Speed_Control@com          cstackBANK1  00B5
UART_sendChar@data         cstackBANK1  00B3
UART_sendString@str        cstackBANK1  00B4
_BRGH                      (abs)        04C2
_CREN                      (abs)        00C4
_Command_Handling          text8        0710
_ExtInt_Init               text5        07CE
_GIE                       (abs)        005F
_INTE                      (abs)        005C
_INTEDG                    (abs)        040E
_INTF                      (abs)        0059
_ISR                       text6        0697
_OERR                      (abs)        00C1
_PEIE                      (abs)        005E
_Position_Control          text9        0493
_RB0                       (abs)        0030
_RCIE                      (abs)        0465
_RCIF                      (abs)        0065
_RCREG                     (abs)        001A
_RD0                       (abs)        0040
_RD1                       (abs)        0041
_RD2                       (abs)        0042
_RX9                       (abs)        00C6
_SPBRG                     (abs)        0099
_SPEN                      (abs)        00C7
_SYNC                      (abs)        04C4
_Speed_Control             text4        05A2
_TRISB0                    (abs)        0430
_TRISCbits                 (abs)        0087
_TRISD0                    (abs)        0440
_TRISD1                    (abs)        0441
_TRISD2                    (abs)        0442
_TX9                       (abs)        04C6
_TXEN                      (abs)        04C5
_TXIF                      (abs)        0064
_TXREG                     (abs)        0019
_UART_Init                 text3        07A8
_UART_sendChar             text2        07BC
_UART_sendString           text1        073B
__H__absolute__            __absolute__ 0000
__Habs1                    abs1         0000
__Hbank0                   bank0        0000
__Hbank1                   bank1        0000
__Hbank2                   bank2        0000
__Hbank3                   bank3        0000
__HbssBANK0                bssBANK0     0000
__HbssBANK1                bssBANK1     0000
__Hcinit                   cinit        0023
__Hclrtext                 clrtext      0000
__Hcode                    code         0000
__Hcommon                  common       0000
__Hconfig                  config       2008
__HcstackBANK0             cstackBANK0  0000
__HcstackBANK1             cstackBANK1  0000
__HcstackCOMMON            cstackCOMMON 0000
__Heeprom_data             eeprom_data  0000
__Hend_init                end_init     0015
__Hfunctab                 functab      0000
__Hidloc                   idloc        2004
__Hinit                    init         0012
__Hintentry                intentry     0012
__Hmaintext                maintext     0000
__Hpowerup                 powerup      0000
__Hram                     ram          0000
__Hreset_vec               reset_vec    0003
__Hsfr0                    sfr0         0000
__Hsfr1                    sfr1         0000
__Hsfr2                    sfr2         0000
__Hsfr3                    sfr3         0000
__Hspace_0                 (abs)        07DA
__Hspace_1                 (abs)        00B8
__Hspace_2                 (abs)        0000
__Hspace_3                 (abs)        0000
__Hspace_4                 (abs)        400F
__Hstack                   stack        0000
__Hstrings                 strings      0000
__Htext                    text         0000
__L__absolute__            __absolute__ 0000
__Labs1                    abs1         0000
__Lbank0                   bank0        0000
__Lbank1                   bank1        0000
__Lbank2                   bank2        0000
__Lbank3                   bank3        0000
__LbssBANK0                bssBANK0     0000
__LbssBANK1                bssBANK1     0000
__Lcinit                   cinit        0015
__Lclrtext                 clrtext      0000
__Lcode                    code         0000
__Lcommon                  common       0000
__Lconfig                  config       0000
__LcstackBANK0             cstackBANK0  0000
__LcstackBANK1             cstackBANK1  0000
__LcstackCOMMON            cstackCOMMON 0000
__Leeprom_data             eeprom_data  0000
__Lend_init                end_init     0012
__Lfunctab                 functab      0000
__Lidloc                   idloc        0000
__Linit                    init         0012
__Lintentry                intentry     0004
__Lmaintext                maintext     0000
__Lpowerup                 powerup      0000
__Lram                     ram          0000
__Lreset_vec               reset_vec    0000
__Lsfr0                    sfr0         0000
__Lsfr1                    sfr1         0000
__Lsfr2                    sfr2         0000
__Lsfr3                    sfr3         0000
__Lspace_0                 (abs)        0000
__Lspace_1                 (abs)        0000
__Lspace_2                 (abs)        0000
__Lspace_3                 (abs)        0000
__Lspace_4                 (abs)        0000
__Lstack                   stack        0000
__Lstrings                 strings      0000
__Ltext                    text         0000
__S0                       (abs)        07DA
__S1                       (abs)        00B8
__S3                       (abs)        0000
__Umul8_16                 text14       0764
__Umul8_16@multiplicand    cstackCOMMON 0070
__Umul8_16@multiplier      cstackCOMMON 0078
__Umul8_16@product         cstackCOMMON 0074
__Umul8_16@word_mpld       cstackCOMMON 0076
___fldiv                   text15       02FC
___fldiv@a                 cstackBANK0  0035
___fldiv@aexp              cstackBANK0  004E
___fldiv@b                 cstackBANK0  0039
___fldiv@bexp              cstackBANK0  004D
___fldiv@grs               cstackBANK0  0049
___fldiv@new_exp           cstackBANK0  0047
___fldiv@rem               cstackBANK0  0042
___fldiv@sign              cstackBANK0  0046
___flmul                   text13       0023
___flmul@a                 cstackBANK0  0024
___flmul@aexp              cstackBANK0  0029
___flmul@b                 cstackBANK0  0020
___flmul@bexp              cstackBANK0  002E
___flmul@grs               cstackBANK0  002A
___flmul@prod              cstackBANK0  002F
___flmul@sign              cstackBANK0  0028
___flmul@temp              cstackBANK0  0033
___fltol                   text12       053B
___fltol@exp1              cstackBANK0  0058
___fltol@f1                cstackBANK0  004F
___fltol@sign1             cstackBANK0  0057
___int_sp                  stack        0000
___latbits                 (abs)        0002
___sp                      stack        0000
___stackhi                 (abs)        0000
___stacklo                 (abs)        0000
__end_of_Command_Handling  text8        073B
__end_of_ExtInt_Init       text5        07D4
__end_of_ISR               text6        06DD
__end_of_Position_Control  text9        053B
__end_of_Speed_Control     text4        0600
__end_of_UART_Init         text3        07BC
__end_of_UART_sendChar     text2        07C6
__end_of_UART_sendString   text1        0764
__end_of__Umul8_16         text14       0787
__end_of___fldiv           text15       0493
__end_of___flmul           text13       02FC
__end_of___fltol           text12       05A2
__end_of__initialization   cinit        001F
__end_of__stringtab        strings      0610
__end_of_main              maintext     0710
__end_of_sprintf           text7        0697
__end_ofi1_UART_sendChar   text11       07DA
__end_ofi1_UART_sendString text10       07A8
__initialization           cinit        0015
__pbssBANK0                bssBANK0     006A
__pbssBANK1                bssBANK1     00A0
__pcstackBANK0             cstackBANK0  0020
__pcstackBANK1             cstackBANK1  00B3
__pcstackCOMMON            cstackCOMMON 0070
__pintentry                intentry     0004
__pmaintext                maintext     06DD
__pstrings                 strings      0600
__ptext1                   text1        073B
__ptext10                  text10       0787
__ptext11                  text11       07D4
__ptext12                  text12       053B
__ptext13                  text13       0023
__ptext14                  text14       0764
__ptext15                  text15       02FC
__ptext2                   text2        07BC
__ptext3                   text3        07A8
__ptext4                   text4        05A2
__ptext5                   text5        07CE
__ptext6                   text6        0697
__ptext7                   text7        064F
__ptext8                   text8        0710
__ptext9                   text9        0493
__stringbase               strings      060F
__stringtab                strings      0600
_command                   bssBANK0     006A
_main                      maintext     06DD
_mode                      bssBANK1     00A0
_rcvStr                    bssBANK1     00A2
_speedmode                 bssBANK1     00A1
_sprintf                   text7        064F
btemp                      (abs)        007E
clear_ram0                 clrtext      07C6
end_of_initialization      cinit        001F
i1UART_sendChar@data       cstackCOMMON 0070
i1UART_sendString@str      cstackCOMMON 0071
i1_UART_sendChar           text11       07D4
i1_UART_sendString         text10       0787
interrupt_function         intentry     0004
intlevel0                  functab      0000
intlevel1                  functab      0000
intlevel2                  functab      0000
intlevel3                  functab      0000
intlevel4                  functab      0000
intlevel5                  functab      0000
reset_vec                  reset_vec    0000
saved_w                    (abs)        007E
sprintf@ap                 cstackCOMMON 0075
sprintf@c                  cstackCOMMON 0076
sprintf@f                  cstackCOMMON 0070
sprintf@sp                 cstackCOMMON 0077
start                      init         0012
start_initialization       cinit        0015
wtemp0                     (abs)        007E


MODULE INFORMATION

Module		Function		Class		Link	Load	Size
C:\Program Files\Microchip\xc8\v2.41\pic\sources\c90\common\sprcmul.c
		___flmul       		CODE           	0023	0000	729

C:\Program Files\Microchip\xc8\v2.41\pic\sources\c90\common\sprcmul.c estimated size: 729

C:\Program Files\Microchip\xc8\v2.41\pic\sources\c90\common\sprcdiv.c
		___fldiv       		CODE           	02FC	0000	407

C:\Program Files\Microchip\xc8\v2.41\pic\sources\c90\common\sprcdiv.c estimated size: 407

UART.c
		_UART_sendString		CODE           	073B	0000	41
		_UART_Init     		CODE           	07A8	0000	20
		_UART_sendChar 		CODE           	07BC	0000	10

UART.c estimated size: 71

Bipolar_Stepper.c
		_ISR           		CODE           	0697	0000	70
		_main          		CODE           	06DD	0000	51
		_Speed_Control 		CODE           	05A2	0000	94
		_Command_Handling		CODE           	0710	0000	43
		_ExtInt_Init   		CODE           	07CE	0000	6
		_Position_Control		CODE           	0493	0000	168

Bipolar_Stepper.c estimated size: 432

C:\Program Files\Microchip\xc8\v2.41\pic\sources\c90\common\fltol.c
		___fltol       		CODE           	053B	0000	103

C:\Program Files\Microchip\xc8\v2.41\pic\sources\c90\common\fltol.c estimated size: 103

shared
		__stringtab    		STRING         	0600	0000	16
		__initialization		CODE           	0015	0000	10
		i1_UART_sendString		CODE           	0787	0000	33
		i1_UART_sendChar		CODE           	07D4	0000	6

shared estimated size: 65

C:\Program Files\Microchip\xc8\v2.41\pic\sources\c90\common\Umul8_16.c
		__Umul8_16     		CODE           	0764	0000	35

C:\Program Files\Microchip\xc8\v2.41\pic\sources\c90\common\Umul8_16.c estimated size: 35

C:\Program Files\Microchip\xc8\v2.41\pic\sources\c90\common\doprnt.c
		_sprintf       		CODE           	064F	0000	72

C:\Program Files\Microchip\xc8\v2.41\pic\sources\c90\common\doprnt.c estimated size: 72

